; Function Attrs: mustprogress uwtable
define void @_ZN7testing8internal11JoinAsTupleERKSt6vectorINSt7__cxx1112basic_stringIcSt11char_traitsIcESaIcEEESaIS7_EE(ptr noalias sret(%"class.std::__cxx11::basic_string") align 8 %agg.result, ptr nocapture noundef nonnull readonly align 8 dereferenceable(24) %fields) local_unnamed_addr #3 personality ptr @__gxx_personality_v0 {
entry:
  %ref.tmp = alloca %"class.std::allocator", align 1
  %_M_finish.i = getelementptr inbounds i8, ptr %fields, i64 8
  %0 = load ptr, ptr %_M_finish.i, align 8
  %1 = load ptr, ptr %fields, align 8
  %sub.ptr.lhs.cast.i = ptrtoint ptr %0 to i64
  %sub.ptr.rhs.cast.i = ptrtoint ptr %1 to i64
  %sub.ptr.sub.i = sub i64 %sub.ptr.lhs.cast.i, %sub.ptr.rhs.cast.i
  %sub.ptr.div.i = ashr exact i64 %sub.ptr.sub.i, 5
  switch i64 %sub.ptr.div.i, label %sw.default [
    i64 0, label %sw.bb
    i64 1, label %sw.bb1
  ]

sw.bb:                                            ; preds = %entry
  call void @_ZNSaIcEC1Ev(ptr noundef nonnull align 1 dereferenceable(1) %ref.tmp) #26
  %call.i8 = invoke noundef ptr @_ZNSt7__cxx1112basic_stringIcSt11char_traitsIcESaIcEE13_M_local_dataEv(ptr noundef nonnull align 8 dereferenceable(32) %agg.result)
          to label %call.i.noexc unwind label %lpad

call.i.noexc:                                     ; preds = %sw.bb
  invoke void @_ZNSt7__cxx1112basic_stringIcSt11char_traitsIcESaIcEE12_Alloc_hiderC1EPcRKS3_(ptr noundef nonnull align 8 dereferenceable(8) %agg.result, ptr noundef %call.i8, ptr noundef nonnull align 1 dereferenceable(1) %ref.tmp)
          to label %.noexc unwind label %lpad

.noexc:                                           ; preds = %call.i.noexc
  invoke void @_ZNSt7__cxx1112basic_stringIcSt11char_traitsIcESaIcEE12_M_constructIPKcEEvT_S8_St20forward_iterator_tag(ptr noundef nonnull align 8 dereferenceable(32) %agg.result, ptr noundef nonnull @.str.2, ptr noundef nonnull @.str.2)
          to label %invoke.cont unwind label %lpad.i

lpad.i:                                           ; preds = %.noexc
  %2 = landingpad { ptr, i32 }
          cleanup
  call void @_ZNSaIcED2Ev(ptr noundef nonnull align 1 dereferenceable(1) %agg.result) #26
  br label %lpad.body

invoke.cont:                                      ; preds = %.noexc
  call void @_ZNSaIcED1Ev(ptr noundef nonnull align 1 dereferenceable(1) %ref.tmp) #26
  br label %return

lpad:                                             ; preds = %call.i.noexc, %sw.bb
  %3 = landingpad { ptr, i32 }
          cleanup
  br label %lpad.body

lpad.body:                                        ; preds = %lpad.i, %lpad
  %eh.lpad-body = phi { ptr, i32 } [ %3, %lpad ], [ %2, %lpad.i ]
  call void @_ZNSaIcED1Ev(ptr noundef nonnull align 1 dereferenceable(1) %ref.tmp) #26
  br label %eh.resume

sw.bb1:                                           ; preds = %entry
  tail call void @_ZNSt7__cxx1112basic_stringIcSt11char_traitsIcESaIcEEC1ERKS4_(ptr noundef nonnull align 8 dereferenceable(32) %agg.result, ptr noundef nonnull align 8 dereferenceable(32) %1)
  br label %return

sw.default:                                       ; preds = %entry
  tail call void @_ZStplIcSt11char_traitsIcESaIcEENSt7__cxx1112basic_stringIT_T0_T1_EEPKS5_RKS8_(ptr sret(%"class.std::__cxx11::basic_string") align 8 %agg.result, ptr noundef nonnull @.str.6, ptr noundef nonnull align 8 dereferenceable(32) %1)
  %4 = load ptr, ptr %_M_finish.i, align 8
  %5 = load ptr, ptr %fields, align 8
  %sub.ptr.lhs.cast.i1015 = ptrtoint ptr %4 to i64
  %sub.ptr.rhs.cast.i1116 = ptrtoint ptr %5 to i64
  %sub.ptr.sub.i1217 = sub i64 %sub.ptr.lhs.cast.i1015, %sub.ptr.rhs.cast.i1116
  %cmp19 = icmp ugt i64 %sub.ptr.sub.i1217, 32
  br i1 %cmp19, label %for.body, label %for.end

for.body:                                         ; preds = %sw.default, %for.inc
  %i.020 = phi i64 [ %inc, %for.inc ], [ 1, %sw.default ]
  %call7 = invoke noundef nonnull align 8 dereferenceable(32) ptr @_ZNSt7__cxx1112basic_stringIcSt11char_traitsIcESaIcEEpLEPKc(ptr noundef nonnull align 8 dereferenceable(32) %agg.result, ptr noundef nonnull @.str.7)
          to label %invoke.cont6 unwind label %lpad5.loopexit

invoke.cont6:                                     ; preds = %for.body
  %6 = load ptr, ptr %fields, align 8
  %add.ptr.i14 = getelementptr inbounds %"class.std::__cxx11::basic_string", ptr %6, i64 %i.020
  %call10 = invoke noundef nonnull align 8 dereferenceable(32) ptr @_ZNSt7__cxx1112basic_stringIcSt11char_traitsIcESaIcEEpLERKS4_(ptr noundef nonnull align 8 dereferenceable(32) %agg.result, ptr noundef nonnull align 8 dereferenceable(32) %add.ptr.i14)
          to label %for.inc unwind label %lpad5.loopexit

for.inc:                                          ; preds = %invoke.cont6
  %inc = add nuw i64 %i.020, 1
  %7 = load ptr, ptr %_M_finish.i, align 8
  %8 = load ptr, ptr %fields, align 8
  %sub.ptr.lhs.cast.i10 = ptrtoint ptr %7 to i64
  %sub.ptr.rhs.cast.i11 = ptrtoint ptr %8 to i64
  %sub.ptr.sub.i12 = sub i64 %sub.ptr.lhs.cast.i10, %sub.ptr.rhs.cast.i11
  %sub.ptr.div.i13 = ashr exact i64 %sub.ptr.sub.i12, 5
  %cmp = icmp ult i64 %inc, %sub.ptr.div.i13
  br i1 %cmp, label %for.body, label %for.end, !llvm.loop !35

lpad5.loopexit:                                   ; preds = %for.body, %invoke.cont6
  %lpad.loopexit = landingpad { ptr, i32 }
          cleanup
  br label %lpad5

lpad5.loopexit.split-lp:                          ; preds = %for.end
  %lpad.loopexit.split-lp = landingpad { ptr, i32 }
          cleanup
  br label %lpad5

lpad5:                                            ; preds = %lpad5.loopexit.split-lp, %lpad5.loopexit
  %lpad.phi = phi { ptr, i32 } [ %lpad.loopexit, %lpad5.loopexit ], [ %lpad.loopexit.split-lp, %lpad5.loopexit.split-lp ]
  tail call void @_ZNSt7__cxx1112basic_stringIcSt11char_traitsIcESaIcEED1Ev(ptr noundef nonnull align 8 dereferenceable(32) %agg.result) #26
  br label %eh.resume

for.end:                                          ; preds = %for.inc, %sw.default
  %call12 = invoke noundef nonnull align 8 dereferenceable(32) ptr @_ZNSt7__cxx1112basic_stringIcSt11char_traitsIcESaIcEEpLEPKc(ptr noundef nonnull align 8 dereferenceable(32) %agg.result, ptr noundef nonnull @.str.8)
          to label %return unwind label %lpad5.loopexit.split-lp

return:                                           ; preds = %for.end, %sw.bb1, %invoke.cont
  ret void

eh.resume:                                        ; preds = %lpad5, %lpad.body
  %.pn = phi { ptr, i32 } [ %lpad.phi, %lpad5 ], [ %eh.lpad-body, %lpad.body ]
  resume { ptr, i32 } %.pn
}